Archive member included to satisfy reference by file (symbol)

/home/lkosub/ENEE440/KOSUB_ENEE440_EXAM2/DiscoBlinkyMoT/Lib/libADC1_TIM2T_48MHz.a(TIM2_TRGO.o)
                              Src/main11.o (TIM2_init)
/home/lkosub/ENEE440/KOSUB_ENEE440_EXAM2/DiscoBlinkyMoT/Lib/libADC1_TIM2T_48MHz.a(ADC1_TIM2_TRGO.o)
                              Src/main11.o (ADC1_TIM2Tinit)
/home/lkosub/ENEE440/KOSUB_ENEE440_EXAM2/DiscoBlinkyMoT/Lib/libADC1_TIM2T_48MHz.a(HCLK48MHz.o)
                              Src/main11.o (HCLK48MHz_init)

Allocating common symbols
Common symbol       size              file

AVG_cnt             0x4               Src/main11.o
serchar             0x4               Src/main11.o
AVG_data            0x4               Src/main11.o
TIM2_ticks          0x4               Src/main11.o
time_between        0x4               Src/main11.o
ADC1_data           0x1               Src/main11.o

Discarded input sections

 .data          0x0000000000000000        0x0 Src/LL_device/stm32L476Disco_GreenLED.o
 .bss           0x0000000000000000        0x0 Src/LL_device/stm32L476Disco_GreenLED.o
 .text          0x0000000000000000       0x78 Src/LL_device/stm32L476Disco_RedLED.o
 .data          0x0000000000000000        0x0 Src/LL_device/stm32L476Disco_RedLED.o
 .bss           0x0000000000000000        0x0 Src/LL_device/stm32L476Disco_RedLED.o
 .debug_line    0x0000000000000000       0x7c Src/LL_device/stm32L476Disco_RedLED.o
 .debug_info    0x0000000000000000       0x26 Src/LL_device/stm32L476Disco_RedLED.o
 .debug_abbrev  0x0000000000000000       0x14 Src/LL_device/stm32L476Disco_RedLED.o
 .debug_aranges
                0x0000000000000000       0x20 Src/LL_device/stm32L476Disco_RedLED.o
 .debug_str     0x0000000000000000       0x75 Src/LL_device/stm32L476Disco_RedLED.o
 .ARM.attributes
                0x0000000000000000       0x25 Src/LL_device/stm32L476Disco_RedLED.o
 .data          0x0000000000000000        0x0 Src/MoT_system/MoT_CmdHandler16.o
 .bss           0x0000000000000000        0x0 Src/MoT_system/MoT_CmdHandler16.o
 .bss           0x0000000000000000        0x0 Src/MoT_system/MoT_Comm_stm32L476_4MHZ_USART2_9600N81_01.o
 .data          0x0000000000000000        0x0 Src/MoT_system/MoT_ringbufbuf03.o
 .bss           0x0000000000000000        0x0 Src/MoT_system/MoT_ringbufbuf03.o
 .data          0x0000000000000000        0x0 Src/MoTdevice_ExamFunctions.o
 .bss           0x0000000000000000        0x0 Src/MoTdevice_ExamFunctions.o
 .data          0x0000000000000000        0x0 Src/MoTdevice_GreenLED08.o
 .group         0x0000000000000000        0xc Src/main11.o
 .group         0x0000000000000000        0xc Src/main11.o
 .group         0x0000000000000000        0xc Src/main11.o
 .group         0x0000000000000000        0xc Src/main11.o
 .group         0x0000000000000000        0xc Src/main11.o
 .group         0x0000000000000000        0xc Src/main11.o
 .group         0x0000000000000000        0xc Src/main11.o
 .group         0x0000000000000000        0xc Src/main11.o
 .group         0x0000000000000000        0xc Src/main11.o
 .group         0x0000000000000000        0xc Src/main11.o
 .group         0x0000000000000000        0xc Src/main11.o
 .group         0x0000000000000000        0xc Src/main11.o
 .group         0x0000000000000000        0xc Src/main11.o
 .group         0x0000000000000000        0xc Src/main11.o
 .group         0x0000000000000000        0xc Src/main11.o
 .group         0x0000000000000000        0xc Src/main11.o
 .group         0x0000000000000000        0xc Src/main11.o
 .group         0x0000000000000000        0xc Src/main11.o
 .group         0x0000000000000000        0xc Src/main11.o
 .group         0x0000000000000000        0xc Src/main11.o
 .group         0x0000000000000000        0xc Src/main11.o
 .group         0x0000000000000000        0xc Src/main11.o
 .group         0x0000000000000000        0xc Src/main11.o
 .group         0x0000000000000000        0xc Src/main11.o
 .group         0x0000000000000000        0xc Src/main11.o
 .group         0x0000000000000000        0xc Src/main11.o
 .group         0x0000000000000000        0xc Src/main11.o
 .group         0x0000000000000000        0xc Src/main11.o
 .group         0x0000000000000000        0xc Src/main11.o
 .group         0x0000000000000000        0xc Src/main11.o
 .group         0x0000000000000000        0xc Src/main11.o
 .text          0x0000000000000000        0x0 Src/main11.o
 .data          0x0000000000000000        0x0 Src/main11.o
 .bss           0x0000000000000000        0x0 Src/main11.o
 .text.SWdelay  0x0000000000000000       0x28 Src/main11.o
 .data          0x0000000000000000        0x0 Src/misc_utilities.o
 .text          0x0000000000000000       0x14 startup/startup_stm32l476xx.o
 .data          0x0000000000000000        0x0 startup/startup_stm32l476xx.o
 .bss           0x0000000000000000        0x0 startup/startup_stm32l476xx.o
 .data          0x0000000000000000        0x0 /home/lkosub/ENEE440/KOSUB_ENEE440_EXAM2/DiscoBlinkyMoT/Lib/libADC1_TIM2T_48MHz.a(TIM2_TRGO.o)
 .bss           0x0000000000000000        0x0 /home/lkosub/ENEE440/KOSUB_ENEE440_EXAM2/DiscoBlinkyMoT/Lib/libADC1_TIM2T_48MHz.a(TIM2_TRGO.o)
 .data          0x0000000000000000        0x0 /home/lkosub/ENEE440/KOSUB_ENEE440_EXAM2/DiscoBlinkyMoT/Lib/libADC1_TIM2T_48MHz.a(ADC1_TIM2_TRGO.o)
 .bss           0x0000000000000000        0x0 /home/lkosub/ENEE440/KOSUB_ENEE440_EXAM2/DiscoBlinkyMoT/Lib/libADC1_TIM2T_48MHz.a(ADC1_TIM2_TRGO.o)
 .data          0x0000000000000000        0x0 /home/lkosub/ENEE440/KOSUB_ENEE440_EXAM2/DiscoBlinkyMoT/Lib/libADC1_TIM2T_48MHz.a(HCLK48MHz.o)
 .bss           0x0000000000000000        0x0 /home/lkosub/ENEE440/KOSUB_ENEE440_EXAM2/DiscoBlinkyMoT/Lib/libADC1_TIM2T_48MHz.a(HCLK48MHz.o)

Memory Configuration

Name             Origin             Length             Attributes
RAM              0x0000000020000000 0x0000000000018000 xrw
RAM2             0x0000000010000000 0x0000000000008000 xrw
FLASH            0x0000000008000000 0x0000000000100000 xr
*default*        0x0000000000000000 0xffffffffffffffff

Linker script and memory map

LOAD Src/LL_device/stm32L476Disco_GreenLED.o
LOAD Src/LL_device/stm32L476Disco_RedLED.o
LOAD Src/MoT_system/MoT_AdminCfg02.o
LOAD Src/MoT_system/MoT_CmdHandler16.o
LOAD Src/MoT_system/MoT_Comm_stm32L476_4MHZ_USART2_9600N81_01.o
LOAD Src/MoT_system/MoT_ringbufbuf03.o
LOAD Src/MoTdevice_ExamFunctions.o
LOAD Src/MoTdevice_GreenLED08.o
LOAD Src/main11.o
LOAD Src/misc_utilities.o
LOAD startup/startup_stm32l476xx.o
LOAD /home/lkosub/ENEE440/KOSUB_ENEE440_EXAM2/DiscoBlinkyMoT/Lib/libADC1_TIM2T_48MHz.a
LOAD /home/lkosub/ENEE440/KOSUB_ENEE440_EXAM2/DiscoBlinkyMoT/Lib/libTIM5_DAC2_PA5.a
LOAD /home/lkosub/Ac6/SystemWorkbench/plugins/fr.ac6.mcu.externaltools.arm-none.linux64_1.17.0.201812190825/tools/compiler/bin/../lib/gcc/arm-none-eabi/7.3.1/../../../../arm-none-eabi/lib/thumb/v7e-m/fpv4-sp/hard/libm.a
                0x0000000020018000                _estack = 0x20018000
                0x0000000000000200                _Min_Heap_Size = 0x200
                0x0000000000000400                _Min_Stack_Size = 0x400

.isr_vector     0x0000000008000000      0x188
                0x0000000008000000                . = ALIGN (0x8)
 *(.isr_vector)
 .isr_vector    0x0000000008000000      0x188 startup/startup_stm32l476xx.o
                0x0000000008000000                g_pfnVectors
                0x0000000008000188                . = ALIGN (0x8)

.text           0x0000000008000188     0x1478
                0x0000000008000188                . = ALIGN (0x8)
 *(.text)
 .text          0x0000000008000188       0x78 Src/LL_device/stm32L476Disco_GreenLED.o
                0x0000000008000188                GreenLED_init
                0x00000000080001cc                GreenLED_OFF
                0x00000000080001de                GreenLED_ON
                0x00000000080001f0                GreenLED_toggle
 .text          0x0000000008000200       0x74 Src/MoT_system/MoT_AdminCfg02.o
                0x0000000008000200                adminDevicetable
                0x000000000800020c                adminDefaultDevice_task0
                0x000000000800024c                adminDefaultDevice_task1
 .text          0x0000000008000274      0x110 Src/MoT_system/MoT_CmdHandler16.o
                0x0000000008000274                init_Cmd_handle
                0x0000000008000298                Cmd_Handler
                0x000000000800037a                do_tasks_return
 .text          0x0000000008000384      0x444 Src/MoT_system/MoT_Comm_stm32L476_4MHZ_USART2_9600N81_01.o
                0x0000000008000384                configure_GPIOD_for_USART2
                0x00000000080003f4                adminTether_init
                0x00000000080003f4                USART2_init
                0x0000000008000480                USART2_nbgetchar
                0x000000000800049c                USART2_nbputchar
                0x00000000080004be                USART2_bgetchar
                0x00000000080004d6                USART2_bputchar
                0x00000000080004ee                USART2_writeDR
                0x00000000080004fe                USART2_IRQHandler
                0x00000000080005c0                USART2_IRQinit
                0x0000000008000616                USART2_MsgPost
                0x0000000008000646                USART2_MsgsInit
                0x0000000008000658                USART2_RXbuffer_init
                0x0000000008000670                USART2_RXgetbuf0
                0x0000000008000680                USART2_RXgetbuf1
                0x0000000008000690                USART2_RXresetRXBUF0_NUMOVERRUNS
                0x00000000080006a2                USART2_RXgetRXBUF0_NUMOVERRUNS
                0x00000000080006b0                USART2_RXresetRXBUF0_NUMNEWLINES
                0x00000000080006c2                USART2_RXgetRXBUF0_NUMNEWLINES
                0x00000000080006d0                USART2_RXresetRXBUF1_NUMOVERRUNS
                0x00000000080006e2                USART2_RXgetRXBUF1_NUMOVERRUNS
                0x00000000080006f0                USART2_RXresetRXBUF1_NUMNEWLINES
                0x0000000008000702                USART2_RXgetRXBUF1_NUMNEWLINES
                0x00000000080007a2                USART2_RXBUF1_discard
 .text          0x00000000080007c8      0x122 Src/MoT_system/MoT_ringbufbuf03.o
                0x00000000080007c8                ringbufbuf0_rd
                0x0000000008000804                ringbufbuf1_rd
                0x0000000008000834                ringbufbuf_wr
                0x00000000080008aa                ringbufbuf_init
                0x00000000080008d6                ringbufbuf0_reset
                0x00000000080008e0                ringbufbuf1_reset
 *fill*         0x00000000080008ea        0x2 
 .text          0x00000000080008ec      0x2f8 Src/MoTdevice_ExamFunctions.o
                0x00000000080008ec                MoTdevice_Func_cmd
                0x00000000080008f8                MoTdevice_Func1
                0x000000000800092a                MoTdevice_Func0
 .text          0x0000000008000be4      0x282 Src/MoTdevice_GreenLED08.o
                0x0000000008000be4                MoTdevice_GreenLED_cmd
                0x0000000008000bf6                MoTdevice_GreenLED_init
                0x0000000008000c62                MoTdevice_GreenLED_slow
                0x0000000008000ca8                MoTdevice_GreenLED_fast
                0x0000000008000cee                MoTdevice_GreenLED_stop
                0x0000000008000d3e                MoTdevice_GreenLED_ONtask
                0x0000000008000d80                MoTdevice_GreenLED_ONtask_msg_posted
                0x0000000008000da2                MoTdevice_GreenLED_OFFtask
                0x0000000008000de4                MoTdevice_GreenLED_OFFtask_msg_posted
 *fill*         0x0000000008000e66        0x2 
 .text          0x0000000008000e68      0x194 Src/misc_utilities.o
                0x0000000008000e68                bytecopy
                0x0000000008000e78                sprintf_uint32
                0x0000000008000edc                ADC1_report
                0x0000000008000f38                AVG_report
                0x0000000008000f94                PERIOD_report
 .text          0x0000000008000ffc      0x1ac /home/lkosub/ENEE440/KOSUB_ENEE440_EXAM2/DiscoBlinkyMoT/Lib/libADC1_TIM2T_48MHz.a(TIM2_TRGO.o)
                0x0000000008000ffc                DBGMCU_FREEZE_TIM2
                0x0000000008001008                DBGMCU_UNFREEZE_TIM2
                0x0000000008001014                TIM2_init
                0x00000000080010e6                TIM2_IRQinit
                0x0000000008001156                TIM2_IRQHandler
 .text          0x00000000080011a8      0x278 /home/lkosub/ENEE440/KOSUB_ENEE440_EXAM2/DiscoBlinkyMoT/Lib/libADC1_TIM2T_48MHz.a(ADC1_TIM2_TRGO.o)
                0x00000000080011a8                ADC1_TIM2Tinit
                0x0000000008001392                ADC1_SWT
                0x00000000080013a4                ADC1_bgetdata
                0x00000000080013ba                ADC1_getdata
                0x00000000080013c0                ADC1_2_IRQinit
                0x0000000008001408                ADC1_2_IRQHandler
 .text          0x0000000008001420       0xba /home/lkosub/ENEE440/KOSUB_ENEE440_EXAM2/DiscoBlinkyMoT/Lib/libADC1_TIM2T_48MHz.a(HCLK48MHz.o)
                0x0000000008001420                LSE_init
                0x000000000800146e                HCLK48MHz_init
 *(.text*)
 *fill*         0x00000000080014da        0x2 
 .text.avgPeaks
                0x00000000080014dc       0x44 Src/main11.o
                0x00000000080014dc                avgPeaks
 .text.main     0x0000000008001520       0x94 Src/main11.o
                0x0000000008001520                main
 .text.Reset_Handler
                0x00000000080015b4       0x48 startup/startup_stm32l476xx.o
                0x00000000080015b4                Reset_Handler
 .text.Default_Handler
                0x00000000080015fc        0x2 startup/startup_stm32l476xx.o
                0x00000000080015fc                RTC_Alarm_IRQHandler
                0x00000000080015fc                EXTI2_IRQHandler
                0x00000000080015fc                TIM8_TRG_COM_IRQHandler
                0x00000000080015fc                TIM8_CC_IRQHandler
                0x00000000080015fc                DebugMon_Handler
                0x00000000080015fc                TIM1_CC_IRQHandler
                0x00000000080015fc                TSC_IRQHandler
                0x00000000080015fc                HardFault_Handler
                0x00000000080015fc                SysTick_Handler
                0x00000000080015fc                TAMP_STAMP_IRQHandler
                0x00000000080015fc                PendSV_Handler
                0x00000000080015fc                NMI_Handler
                0x00000000080015fc                EXTI3_IRQHandler
                0x00000000080015fc                LPTIM2_IRQHandler
                0x00000000080015fc                DFSDM1_FLT1_IRQHandler
                0x00000000080015fc                I2C3_ER_IRQHandler
                0x00000000080015fc                DFSDM1_FLT2_IRQHandler
                0x00000000080015fc                EXTI0_IRQHandler
                0x00000000080015fc                I2C2_EV_IRQHandler
                0x00000000080015fc                CAN1_RX0_IRQHandler
                0x00000000080015fc                FPU_IRQHandler
                0x00000000080015fc                TIM1_UP_TIM16_IRQHandler
                0x00000000080015fc                UsageFault_Handler
                0x00000000080015fc                SPI1_IRQHandler
                0x00000000080015fc                TIM6_DAC_IRQHandler
                0x00000000080015fc                TIM8_UP_IRQHandler
                0x00000000080015fc                DMA2_Channel2_IRQHandler
                0x00000000080015fc                DMA1_Channel4_IRQHandler
                0x00000000080015fc                SAI2_IRQHandler
                0x00000000080015fc                DFSDM1_FLT3_IRQHandler
                0x00000000080015fc                USART3_IRQHandler
                0x00000000080015fc                DMA1_Channel7_IRQHandler
                0x00000000080015fc                CAN1_RX1_IRQHandler
                0x00000000080015fc                LCD_IRQHandler
                0x00000000080015fc                UART5_IRQHandler
                0x00000000080015fc                ADC3_IRQHandler
                0x00000000080015fc                TIM4_IRQHandler
                0x00000000080015fc                DMA2_Channel1_IRQHandler
                0x00000000080015fc                QUADSPI_IRQHandler
                0x00000000080015fc                I2C1_EV_IRQHandler
                0x00000000080015fc                DMA1_Channel6_IRQHandler
                0x00000000080015fc                UART4_IRQHandler
                0x00000000080015fc                DMA2_Channel4_IRQHandler
                0x00000000080015fc                TIM3_IRQHandler
                0x00000000080015fc                RCC_IRQHandler
                0x00000000080015fc                DMA1_Channel1_IRQHandler
                0x00000000080015fc                Default_Handler
                0x00000000080015fc                DMA2_Channel7_IRQHandler
                0x00000000080015fc                EXTI15_10_IRQHandler
                0x00000000080015fc                TIM7_IRQHandler
                0x00000000080015fc                SDMMC1_IRQHandler
                0x00000000080015fc                TIM5_IRQHandler
                0x00000000080015fc                I2C3_EV_IRQHandler
                0x00000000080015fc                EXTI9_5_IRQHandler
                0x00000000080015fc                RTC_WKUP_IRQHandler
                0x00000000080015fc                PVD_PVM_IRQHandler
                0x00000000080015fc                SPI2_IRQHandler
                0x00000000080015fc                MemManage_Handler
                0x00000000080015fc                CAN1_TX_IRQHandler
                0x00000000080015fc                SVC_Handler
                0x00000000080015fc                DMA2_Channel5_IRQHandler
                0x00000000080015fc                DMA1_Channel5_IRQHandler
                0x00000000080015fc                EXTI4_IRQHandler
                0x00000000080015fc                RNG_IRQHandler
                0x00000000080015fc                TIM1_TRG_COM_TIM17_IRQHandler
                0x00000000080015fc                DMA1_Channel3_IRQHandler
                0x00000000080015fc                COMP_IRQHandler
                0x00000000080015fc                WWDG_IRQHandler
                0x00000000080015fc                LPUART1_IRQHandler
                0x00000000080015fc                DMA2_Channel6_IRQHandler
                0x00000000080015fc                EXTI1_IRQHandler
                0x00000000080015fc                DFSDM1_FLT0_IRQHandler
                0x00000000080015fc                I2C2_ER_IRQHandler
                0x00000000080015fc                DMA1_Channel2_IRQHandler
                0x00000000080015fc                TIM8_BRK_IRQHandler
                0x00000000080015fc                CAN1_SCE_IRQHandler
                0x00000000080015fc                FLASH_IRQHandler
                0x00000000080015fc                BusFault_Handler
                0x00000000080015fc                USART1_IRQHandler
                0x00000000080015fc                OTG_FS_IRQHandler
                0x00000000080015fc                SPI3_IRQHandler
                0x00000000080015fc                I2C1_ER_IRQHandler
                0x00000000080015fc                FMC_IRQHandler
                0x00000000080015fc                SWPMI1_IRQHandler
                0x00000000080015fc                LPTIM1_IRQHandler
                0x00000000080015fc                SAI1_IRQHandler
                0x00000000080015fc                DMA2_Channel3_IRQHandler
                0x00000000080015fc                TIM1_BRK_TIM15_IRQHandler
 *(.glue_7)
 .glue_7        0x00000000080015fe        0x0 linker stubs
 *(.glue_7t)
 .glue_7t       0x00000000080015fe        0x0 linker stubs
 *(.eh_frame)
 *(.init)
 *(.fini)
                0x0000000008001600                . = ALIGN (0x8)
 *fill*         0x00000000080015fe        0x2 
                0x0000000008001600                _etext = .

.vfp11_veneer   0x0000000008001600        0x0
 .vfp11_veneer  0x0000000008001600        0x0 linker stubs

.v4_bx          0x0000000008001600        0x0
 .v4_bx         0x0000000008001600        0x0 linker stubs

.iplt           0x0000000008001600        0x0
 .iplt          0x0000000008001600        0x0 Src/LL_device/stm32L476Disco_GreenLED.o

.rel.dyn        0x0000000008001600        0x0
 .rel.iplt      0x0000000008001600        0x0 Src/LL_device/stm32L476Disco_GreenLED.o

.rodata         0x0000000008001600        0x0
                0x0000000008001600                . = ALIGN (0x8)
 *(.rodata)
 *(.rodata*)
                0x0000000008001600                . = ALIGN (0x8)

.ARM.extab      0x0000000008001600        0x0
                0x0000000008001600                . = ALIGN (0x8)
 *(.ARM.extab* .gnu.linkonce.armextab.*)
                0x0000000008001600                . = ALIGN (0x8)

.ARM            0x0000000008001600        0x0
                0x0000000008001600                . = ALIGN (0x8)
                0x0000000008001600                __exidx_start = .
 *(.ARM.exidx*)
                0x0000000008001600                __exidx_end = .
                0x0000000008001600                . = ALIGN (0x8)

.preinit_array  0x0000000008001600        0x0
                0x0000000008001600                . = ALIGN (0x8)
                [!provide]                        PROVIDE (__preinit_array_start = .)
 *(.preinit_array*)
                [!provide]                        PROVIDE (__preinit_array_end = .)
                0x0000000008001600                . = ALIGN (0x8)

.init_array     0x0000000008001600        0x0
                0x0000000008001600                . = ALIGN (0x8)
                [!provide]                        PROVIDE (__init_array_start = .)
 *(SORT_BY_NAME(.init_array.*))
 *(.init_array*)
                [!provide]                        PROVIDE (__init_array_end = .)
                0x0000000008001600                . = ALIGN (0x8)

.fini_array     0x0000000008001600        0x0
                0x0000000008001600                . = ALIGN (0x8)
                [!provide]                        PROVIDE (__fini_array_start = .)
 *(SORT_BY_NAME(.fini_array.*))
 *(.fini_array*)
                [!provide]                        PROVIDE (__fini_array_end = .)
                0x0000000008001600                . = ALIGN (0x8)
                0x0000000008001600                _sidata = LOADADDR (.data)

.data           0x0000000020000000     0x3240 load address 0x0000000008001600
                0x0000000020000000                . = ALIGN (0x8)
                0x0000000020000000                _sdata = .
 *(.data)
 .data          0x0000000020000000     0x2854 Src/MoT_system/MoT_AdminCfg02.o
                0x0000000020000000                adminTasklist
                0x0000000020000010                adminDefaultDevice_task
                0x0000000020002848                adminTasklist_last
 .data          0x0000000020002854      0x9ec Src/MoT_system/MoT_Comm_stm32L476_4MHZ_USART2_9600N81_01.o
                0x0000000020002874                USART2_RXbufHANDLE
                0x0000000020003238                admin_Msgctl
                0x0000000020003238                USART2_MsgCtl
 *(.data*)
                0x0000000020003240                . = ALIGN (0x8)
                0x0000000020003240                _edata = .

.igot.plt       0x0000000020003240        0x0 load address 0x0000000008004840
 .igot.plt      0x0000000020003240        0x0 Src/LL_device/stm32L476Disco_GreenLED.o
                0x0000000020003240                . = ALIGN (0x4)

.bss            0x0000000020003240      0xa74 load address 0x0000000008004840
                0x0000000020003240                _sbss = .
                0x0000000020003240                __bss_start__ = _sbss
 *(.bss)
 .bss           0x0000000020003240      0x9e4 Src/MoT_system/MoT_AdminCfg02.o
                0x0000000020003260                adminCmd_handle
 .bss           0x0000000020003c24       0x20 Src/MoTdevice_GreenLED08.o
                0x0000000020003c24                MoTdevice_GreenLED_data
 .bss           0x0000000020003c44       0x58 Src/misc_utilities.o
                0x0000000020003c44                ADC1_report_data
 *(.bss*)
 *(COMMON)
 COMMON         0x0000000020003c9c       0x15 Src/main11.o
                0x0000000020003c9c                AVG_cnt
                0x0000000020003ca0                serchar
                0x0000000020003ca4                AVG_data
                0x0000000020003ca8                TIM2_ticks
                0x0000000020003cac                time_between
                0x0000000020003cb0                ADC1_data
                0x0000000020003cb4                . = ALIGN (0x4)
 *fill*         0x0000000020003cb1        0x3 
                0x0000000020003cb4                _ebss = .
                0x0000000020003cb4                __bss_end__ = _ebss

._user_heap_stack
                0x0000000020003cb4      0x604 load address 0x0000000008004840
                0x0000000020003cb8                . = ALIGN (0x8)
 *fill*         0x0000000020003cb4        0x4 
                [!provide]                        PROVIDE (end = .)
                [!provide]                        PROVIDE (_end = .)
                0x0000000020003eb8                . = (. + _Min_Heap_Size)
 *fill*         0x0000000020003cb8      0x200 
                0x00000000200042b8                . = (. + _Min_Stack_Size)
 *fill*         0x0000000020003eb8      0x400 
                0x00000000200042b8                . = ALIGN (0x8)

/DISCARD/
 libc.a(*)
 libm.a(*)
 libgcc.a(*)

.ARM.attributes
                0x0000000000000000       0x35
 *(.ARM.attributes)
 .ARM.attributes
                0x0000000000000000       0x25 Src/LL_device/stm32L476Disco_GreenLED.o
 .ARM.attributes
                0x0000000000000025       0x25 Src/MoT_system/MoT_AdminCfg02.o
 .ARM.attributes
                0x000000000000004a       0x25 Src/MoT_system/MoT_CmdHandler16.o
 .ARM.attributes
                0x000000000000006f       0x25 Src/MoT_system/MoT_Comm_stm32L476_4MHZ_USART2_9600N81_01.o
 .ARM.attributes
                0x0000000000000094       0x25 Src/MoT_system/MoT_ringbufbuf03.o
 .ARM.attributes
                0x00000000000000b9       0x25 Src/MoTdevice_ExamFunctions.o
 .ARM.attributes
                0x00000000000000de       0x25 Src/MoTdevice_GreenLED08.o
 .ARM.attributes
                0x0000000000000103       0x39 Src/main11.o
 .ARM.attributes
                0x000000000000013c       0x25 Src/misc_utilities.o
 .ARM.attributes
                0x0000000000000161       0x25 startup/startup_stm32l476xx.o
 .ARM.attributes
                0x0000000000000186       0x21 /home/lkosub/ENEE440/KOSUB_ENEE440_EXAM2/DiscoBlinkyMoT/Lib/libADC1_TIM2T_48MHz.a(TIM2_TRGO.o)
 .ARM.attributes
                0x00000000000001a7       0x21 /home/lkosub/ENEE440/KOSUB_ENEE440_EXAM2/DiscoBlinkyMoT/Lib/libADC1_TIM2T_48MHz.a(ADC1_TIM2_TRGO.o)
 .ARM.attributes
                0x00000000000001c8       0x21 /home/lkosub/ENEE440/KOSUB_ENEE440_EXAM2/DiscoBlinkyMoT/Lib/libADC1_TIM2T_48MHz.a(HCLK48MHz.o)
OUTPUT(DiscoBlinkyMoT.elf elf32-littlearm)

.debug_line     0x0000000000000000      0xa95
 .debug_line    0x0000000000000000       0x7e Src/LL_device/stm32L476Disco_GreenLED.o
 .debug_line    0x000000000000007e       0x59 Src/MoT_system/MoT_AdminCfg02.o
 .debug_line    0x00000000000000d7       0xb0 Src/MoT_system/MoT_CmdHandler16.o
 .debug_line    0x0000000000000187      0x1b6 Src/MoT_system/MoT_Comm_stm32L476_4MHZ_USART2_9600N81_01.o
 .debug_line    0x000000000000033d       0xb4 Src/MoT_system/MoT_ringbufbuf03.o
 .debug_line    0x00000000000003f1       0x9f Src/MoTdevice_ExamFunctions.o
 .debug_line    0x0000000000000490       0x96 Src/MoTdevice_GreenLED08.o
 .debug_line    0x0000000000000526      0x454 Src/main11.o
 .debug_line    0x000000000000097a       0x9e Src/misc_utilities.o
 .debug_line    0x0000000000000a18       0x7d startup/startup_stm32l476xx.o

.debug_info     0x0000000000000000      0xba7
 .debug_info    0x0000000000000000       0x26 Src/LL_device/stm32L476Disco_GreenLED.o
 .debug_info    0x0000000000000026       0x26 Src/MoT_system/MoT_AdminCfg02.o
 .debug_info    0x000000000000004c       0x26 Src/MoT_system/MoT_CmdHandler16.o
 .debug_info    0x0000000000000072       0x26 Src/MoT_system/MoT_Comm_stm32L476_4MHZ_USART2_9600N81_01.o
 .debug_info    0x0000000000000098       0x26 Src/MoT_system/MoT_ringbufbuf03.o
 .debug_info    0x00000000000000be       0x26 Src/MoTdevice_ExamFunctions.o
 .debug_info    0x00000000000000e4       0x26 Src/MoTdevice_GreenLED08.o
 .debug_info    0x000000000000010a      0xa55 Src/main11.o
 .debug_info    0x0000000000000b5f       0x26 Src/misc_utilities.o
 .debug_info    0x0000000000000b85       0x22 startup/startup_stm32l476xx.o

.debug_abbrev   0x0000000000000000      0x2d0
 .debug_abbrev  0x0000000000000000       0x14 Src/LL_device/stm32L476Disco_GreenLED.o
 .debug_abbrev  0x0000000000000014       0x14 Src/MoT_system/MoT_AdminCfg02.o
 .debug_abbrev  0x0000000000000028       0x14 Src/MoT_system/MoT_CmdHandler16.o
 .debug_abbrev  0x000000000000003c       0x14 Src/MoT_system/MoT_Comm_stm32L476_4MHZ_USART2_9600N81_01.o
 .debug_abbrev  0x0000000000000050       0x14 Src/MoT_system/MoT_ringbufbuf03.o
 .debug_abbrev  0x0000000000000064       0x14 Src/MoTdevice_ExamFunctions.o
 .debug_abbrev  0x0000000000000078       0x14 Src/MoTdevice_GreenLED08.o
 .debug_abbrev  0x000000000000008c      0x21e Src/main11.o
 .debug_abbrev  0x00000000000002aa       0x14 Src/misc_utilities.o
 .debug_abbrev  0x00000000000002be       0x12 startup/startup_stm32l476xx.o

.debug_aranges  0x0000000000000000      0x158
 .debug_aranges
                0x0000000000000000       0x20 Src/LL_device/stm32L476Disco_GreenLED.o
 .debug_aranges
                0x0000000000000020       0x20 Src/MoT_system/MoT_AdminCfg02.o
 .debug_aranges
                0x0000000000000040       0x20 Src/MoT_system/MoT_CmdHandler16.o
 .debug_aranges
                0x0000000000000060       0x20 Src/MoT_system/MoT_Comm_stm32L476_4MHZ_USART2_9600N81_01.o
 .debug_aranges
                0x0000000000000080       0x20 Src/MoT_system/MoT_ringbufbuf03.o
 .debug_aranges
                0x00000000000000a0       0x20 Src/MoTdevice_ExamFunctions.o
 .debug_aranges
                0x00000000000000c0       0x20 Src/MoTdevice_GreenLED08.o
 .debug_aranges
                0x00000000000000e0       0x30 Src/main11.o
 .debug_aranges
                0x0000000000000110       0x20 Src/misc_utilities.o
 .debug_aranges
                0x0000000000000130       0x28 startup/startup_stm32l476xx.o

.debug_str      0x0000000000000000     0x76ff
 .debug_str     0x0000000000000000       0x77 Src/LL_device/stm32L476Disco_GreenLED.o
 .debug_str     0x0000000000000077       0x23 Src/MoT_system/MoT_AdminCfg02.o
                                         0x6f (size before relaxing)
 .debug_str     0x000000000000009a       0x25 Src/MoT_system/MoT_CmdHandler16.o
                                         0x71 (size before relaxing)
 .debug_str     0x00000000000000bf       0x3e Src/MoT_system/MoT_Comm_stm32L476_4MHZ_USART2_9600N81_01.o
                                         0x8a (size before relaxing)
 .debug_str     0x00000000000000fd       0x25 Src/MoT_system/MoT_ringbufbuf03.o
                                         0x71 (size before relaxing)
 .debug_str     0x0000000000000122       0x21 Src/MoTdevice_ExamFunctions.o
                                         0x6d (size before relaxing)
 .debug_str     0x0000000000000143       0x1e Src/MoTdevice_GreenLED08.o
                                         0x6a (size before relaxing)
 .debug_str     0x0000000000000161     0x7565 Src/main11.o
                                       0x7831 (size before relaxing)
 .debug_str     0x00000000000076c6       0x18 Src/misc_utilities.o
                                         0x64 (size before relaxing)
 .debug_str     0x00000000000076de       0x21 startup/startup_stm32l476xx.o
                                         0x6d (size before relaxing)

.debug_ranges   0x0000000000000000       0x40
 .debug_ranges  0x0000000000000000       0x20 Src/main11.o
 .debug_ranges  0x0000000000000020       0x20 startup/startup_stm32l476xx.o

.debug_macro    0x0000000000000000     0x1b75
 .debug_macro   0x0000000000000000      0x193 Src/main11.o
 .debug_macro   0x0000000000000193      0xa60 Src/main11.o
 .debug_macro   0x0000000000000bf3      0x34e Src/main11.o
 .debug_macro   0x0000000000000f41       0x22 Src/main11.o
 .debug_macro   0x0000000000000f63       0x58 Src/main11.o
 .debug_macro   0x0000000000000fbb       0x18 Src/main11.o
 .debug_macro   0x0000000000000fd3       0x94 Src/main11.o
 .debug_macro   0x0000000000001067       0x35 Src/main11.o
 .debug_macro   0x000000000000109c       0x34 Src/main11.o
 .debug_macro   0x00000000000010d0       0x57 Src/main11.o
 .debug_macro   0x0000000000001127      0x174 Src/main11.o
 .debug_macro   0x000000000000129b      0x330 Src/main11.o
 .debug_macro   0x00000000000015cb       0x58 Src/main11.o
 .debug_macro   0x0000000000001623       0x1f Src/main11.o
 .debug_macro   0x0000000000001642       0x43 Src/main11.o
 .debug_macro   0x0000000000001685       0x20 Src/main11.o
 .debug_macro   0x00000000000016a5      0x18e Src/main11.o
 .debug_macro   0x0000000000001833       0x10 Src/main11.o
 .debug_macro   0x0000000000001843       0x35 Src/main11.o
 .debug_macro   0x0000000000001878       0x10 Src/main11.o
 .debug_macro   0x0000000000001888       0x10 Src/main11.o
 .debug_macro   0x0000000000001898       0x10 Src/main11.o
 .debug_macro   0x00000000000018a8       0x6a Src/main11.o
 .debug_macro   0x0000000000001912       0x1c Src/main11.o
 .debug_macro   0x000000000000192e       0x52 Src/main11.o
 .debug_macro   0x0000000000001980       0x40 Src/main11.o
 .debug_macro   0x00000000000019c0       0x10 Src/main11.o
 .debug_macro   0x00000000000019d0       0x40 Src/main11.o
 .debug_macro   0x0000000000001a10       0xd7 Src/main11.o
 .debug_macro   0x0000000000001ae7       0x1c Src/main11.o
 .debug_macro   0x0000000000001b03       0x3d Src/main11.o
 .debug_macro   0x0000000000001b40       0x35 Src/main11.o

.comment        0x0000000000000000       0x7f
 .comment       0x0000000000000000       0x7f Src/main11.o
                                         0x80 (size before relaxing)

.debug_frame    0x0000000000000000       0x80
 .debug_frame   0x0000000000000000       0x80 Src/main11.o
